target datalayout = "e-m:e-p270:32:32-p271:32:32-p272:64:64-i64:64-i128:128-f80:128-n8:16:32:64-S128"
target triple = "x86_64-unknown-linux-gnu"

%"class.arith::sls" = type <{ %"class.sat::local_search_plugin", ptr, ptr, ptr, %"struct.arith::sls::stats", [4 x i8], %"struct.arith::sls::config", %class.scoped_ptr_vector, %class.vector.0, %class.svector, i8, [7 x i8] }>
%"class.sat::local_search_plugin" = type { ptr }
%"struct.arith::sls::stats" = type { i32 }
%"struct.arith::sls::config" = type { double, i32, i32, i32, double }
%class.scoped_ptr_vector = type { %class.ptr_vector }
%class.ptr_vector = type { %class.vector }
%class.vector = type { ptr }
%class.vector.0 = type { ptr }
%class.svector = type { %class.vector.1 }
%class.vector.1 = type { ptr }
%"struct.arith::sls::var_info" = type { i64, i64, i32, %class.svector.97 }
%class.svector.97 = type { %class.vector.98 }
%class.vector.98 = type { ptr }
%class.anon.253 = type { ptr, ptr, ptr, ptr, ptr, ptr, ptr, ptr, ptr }

@.str = private unnamed_addr constant [2 x i8] c"\0A\00", align 1
@.str.9 = private unnamed_addr constant [109 x i8] c"generated/home/dtcxzyw/WorkSpace/Projects/compilers/llvm-opt-benchmark/bench/z3/z3/src/sat/smt/arith_sls.cpp\00", align 1
@.str.11 = private unnamed_addr constant [29 x i8] c"UNEXPECTED CODE WAS REACHED.\00", align 1
@.str.20 = private unnamed_addr constant [2 x i8] c" \00", align 1
@.str.37 = private unnamed_addr constant [24 x i8] c"did not solve equality \00", align 1
@.str.38 = private unnamed_addr constant [6 x i8] c" for \00", align 1
@.str.39 = private unnamed_addr constant [8 x i8] c" delta \00", align 1
@.str.40 = private unnamed_addr constant [6 x i8] c" lhs \00", align 1
@.str.41 = private unnamed_addr constant [8 x i8] c" bound \00", align 1

; Function Attrs: mustprogress nounwind uwtable
define linkonce_odr hidden noundef nonnull align 8 dereferenceable(32) ptr @_ZNK6vectorIN5arith3sls8var_infoELb1EjEixEj(ptr noundef nonnull align 8 dereferenceable(8) %this, i32 noundef %idx) #4 comdat align 2 {
entry:
  %this.addr = alloca ptr, align 8
  %idx.addr = alloca i32, align 4
  store ptr %this, ptr %this.addr, align 8
  store i32 %idx, ptr %idx.addr, align 4
  %this1 = load ptr, ptr %this.addr, align 8
  %m_data = getelementptr inbounds %class.vector.0, ptr %this1, i32 0, i32 0
  %0 = load ptr, ptr %m_data, align 8
  %1 = load i32, ptr %idx.addr, align 4
  %idxprom = zext i32 %1 to i64
  %arrayidx = getelementptr inbounds %"struct.arith::sls::var_info", ptr %0, i64 %idxprom
  ret ptr %arrayidx
}

; Function Attrs: mustprogress nounwind uwtable
define linkonce_odr noundef i64 @_ZSt3absl(i64 noundef %__i) #4 comdat {
entry:
  %__i.addr = alloca i64, align 8
  store i64 %__i, ptr %__i.addr, align 8
  %0 = load i64, ptr %__i.addr, align 8
  %1 = call i64 @llvm.abs.i64(i64 %0, i1 true)
  ret i64 %1
}

; Function Attrs: mustprogress uwtable
define linkonce_odr hidden noundef i64 @_ZNK5arith3sls5valueEj(ptr noundef nonnull align 8 dereferenceable(97) %this, i32 noundef %v) #5 comdat align 2 {
entry:
  %this.addr = alloca ptr, align 8
  %v.addr = alloca i32, align 4
  store ptr %this, ptr %this.addr, align 8
  store i32 %v, ptr %v.addr, align 4
  %this1 = load ptr, ptr %this.addr, align 8
  %m_vars = getelementptr inbounds %"class.arith::sls", ptr %this1, i32 0, i32 8
  %0 = load i32, ptr %v.addr, align 4
  %call = call noundef nonnull align 8 dereferenceable(32) ptr @_ZNK6vectorIN5arith3sls8var_infoELb1EjEixEj(ptr noundef nonnull align 8 dereferenceable(8) %m_vars, i32 noundef %0)
  %m_value = getelementptr inbounds %"struct.arith::sls::var_info", ptr %call, i32 0, i32 0
  %1 = load i64, ptr %m_value, align 8
  ret i64 %1
}

; Function Attrs: mustprogress uwtable
define internal noundef zeroext i1 @"_ZZN5arith3sls2cmEbRKNS0_4ineqEjlRlENK3$_1clEv"(ptr noundef nonnull align 8 dereferenceable(72) %this) #5 align 2 {
entry:
  %this.addr = alloca ptr, align 8
  store ptr %this, ptr %this.addr, align 8
  %this1 = load ptr, ptr %this.addr, align 8
  %0 = getelementptr inbounds %class.anon.253, ptr %this1, i32 0, i32 2
  %1 = load ptr, ptr %0, align 8
  %2 = getelementptr inbounds %class.anon.253, ptr %this1, i32 0, i32 0
  %3 = load ptr, ptr %2, align 8
  %4 = load i64, ptr %3, align 8
  %cmp = icmp slt i64 %4, 0
  br i1 %cmp, label %if.then, label %if.else

if.then:                                          ; preds = %entry
  %5 = getelementptr inbounds %class.anon.253, ptr %this1, i32 0, i32 3
  %6 = load ptr, ptr %5, align 8
  %7 = load i32, ptr %6, align 4
  %call = call noundef i64 @_ZNK5arith3sls5valueEj(ptr noundef nonnull align 8 dereferenceable(97) %1, i32 noundef %7)
  %8 = getelementptr inbounds %class.anon.253, ptr %this1, i32 0, i32 0
  %9 = load ptr, ptr %8, align 8
  %10 = load i64, ptr %9, align 8
  %call2 = call noundef i64 @_ZSt3absl(i64 noundef %10)
  %11 = getelementptr inbounds %class.anon.253, ptr %this1, i32 0, i32 4
  %12 = load ptr, ptr %11, align 8
  %13 = load i64, ptr %12, align 8
  %call3 = call noundef i64 @_ZSt3absl(i64 noundef %13)
  %add = add nsw i64 %call2, %call3
  %sub = sub nsw i64 %add, 1
  %14 = getelementptr inbounds %class.anon.253, ptr %this1, i32 0, i32 4
  %15 = load ptr, ptr %14, align 8
  %16 = load i64, ptr %15, align 8
  %div = sdiv i64 %sub, %16
  %add4 = add nsw i64 %call, %div
  %17 = getelementptr inbounds %class.anon.253, ptr %this1, i32 0, i32 1
  %18 = load ptr, ptr %17, align 8
  store i64 %add4, ptr %18, align 8
  br label %if.end

if.else:                                          ; preds = %entry
  %19 = getelementptr inbounds %class.anon.253, ptr %this1, i32 0, i32 3
  %20 = load ptr, ptr %19, align 8
  %21 = load i32, ptr %20, align 4
  %call5 = call noundef i64 @_ZNK5arith3sls5valueEj(ptr noundef nonnull align 8 dereferenceable(97) %1, i32 noundef %21)
  %22 = getelementptr inbounds %class.anon.253, ptr %this1, i32 0, i32 0
  %23 = load ptr, ptr %22, align 8
  %24 = load i64, ptr %23, align 8
  %25 = getelementptr inbounds %class.anon.253, ptr %this1, i32 0, i32 4
  %26 = load ptr, ptr %25, align 8
  %27 = load i64, ptr %26, align 8
  %call6 = call noundef i64 @_ZSt3absl(i64 noundef %27)
  %add7 = add nsw i64 %24, %call6
  %sub8 = sub nsw i64 %add7, 1
  %28 = getelementptr inbounds %class.anon.253, ptr %this1, i32 0, i32 4
  %29 = load ptr, ptr %28, align 8
  %30 = load i64, ptr %29, align 8
  %div9 = sdiv i64 %sub8, %30
  %sub10 = sub nsw i64 %call5, %div9
  %31 = getelementptr inbounds %class.anon.253, ptr %this1, i32 0, i32 1
  %32 = load ptr, ptr %31, align 8
  store i64 %sub10, ptr %32, align 8
  br label %if.end

if.end:                                           ; preds = %if.else, %if.then
  %33 = getelementptr inbounds %class.anon.253, ptr %this1, i32 0, i32 6
  %34 = load ptr, ptr %33, align 8
  %35 = load i64, ptr %34, align 8
  %36 = getelementptr inbounds %class.anon.253, ptr %this1, i32 0, i32 4
  %37 = load ptr, ptr %36, align 8
  %38 = load i64, ptr %37, align 8
  %39 = getelementptr inbounds %class.anon.253, ptr %this1, i32 0, i32 1
  %40 = load ptr, ptr %39, align 8
  %41 = load i64, ptr %40, align 8
  %42 = getelementptr inbounds %class.anon.253, ptr %this1, i32 0, i32 3
  %43 = load ptr, ptr %42, align 8
  %44 = load i32, ptr %43, align 4
  %call11 = call noundef i64 @_ZNK5arith3sls5valueEj(ptr noundef nonnull align 8 dereferenceable(97) %1, i32 noundef %44)
  %sub12 = sub nsw i64 %41, %call11
  %mul = mul nsw i64 %38, %sub12
  %add13 = add nsw i64 %35, %mul
  %45 = getelementptr inbounds %class.anon.253, ptr %this1, i32 0, i32 7
  %46 = load ptr, ptr %45, align 8
  %47 = load i64, ptr %46, align 8
  %cmp14 = icmp eq i64 %add13, %47
  %48 = getelementptr inbounds %class.anon.253, ptr %this1, i32 0, i32 5
  %49 = load ptr, ptr %48, align 8
  %frombool = zext i1 %cmp14 to i8
  store i8 %frombool, ptr %49, align 1
  %50 = getelementptr inbounds %class.anon.253, ptr %this1, i32 0, i32 5
  %51 = load ptr, ptr %50, align 8
  %52 = load i8, ptr %51, align 1
  %tobool = trunc i8 %52 to i1
  br i1 %tobool, label %if.end40, label %land.lhs.true

land.lhs.true:                                    ; preds = %if.end
  %53 = getelementptr inbounds %class.anon.253, ptr %this1, i32 0, i32 4
  %54 = load ptr, ptr %53, align 8
  %55 = load i64, ptr %54, align 8
  %call15 = call noundef i64 @_ZSt3absl(i64 noundef %55)
  %cmp16 = icmp eq i64 %call15, 1
  br i1 %cmp16, label %if.then17, label %if.end40

if.then17:                                        ; preds = %land.lhs.true
  %call18 = call noundef nonnull align 8 dereferenceable(8) ptr @_Z14verbose_streamv()
  %call19 = call noundef nonnull align 8 dereferenceable(8) ptr @_ZStlsISt11char_traitsIcEERSt13basic_ostreamIcT_ES5_PKc(ptr noundef nonnull align 8 dereferenceable(8) %call18, ptr noundef @.str.37)
  %56 = getelementptr inbounds %class.anon.253, ptr %this1, i32 0, i32 8
  %57 = load ptr, ptr %56, align 8
  %call20 = call noundef nonnull align 8 dereferenceable(8) ptr @_ZN5arithlsERSoRKNS_3sls4ineqE(ptr noundef nonnull align 8 dereferenceable(8) %call19, ptr noundef nonnull align 8 dereferenceable(36) %57)
  %call21 = call noundef nonnull align 8 dereferenceable(8) ptr @_ZStlsISt11char_traitsIcEERSt13basic_ostreamIcT_ES5_PKc(ptr noundef nonnull align 8 dereferenceable(8) %call20, ptr noundef @.str.38)
  %58 = getelementptr inbounds %class.anon.253, ptr %this1, i32 0, i32 3
  %59 = load ptr, ptr %58, align 8
  %60 = load i32, ptr %59, align 4
  %call22 = call noundef nonnull align 8 dereferenceable(8) ptr @_ZNSolsEj(ptr noundef nonnull align 8 dereferenceable(8) %call21, i32 noundef %60)
  %call23 = call noundef nonnull align 8 dereferenceable(8) ptr @_ZStlsISt11char_traitsIcEERSt13basic_ostreamIcT_ES5_PKc(ptr noundef nonnull align 8 dereferenceable(8) %call22, ptr noundef @.str)
  %call24 = call noundef nonnull align 8 dereferenceable(8) ptr @_Z14verbose_streamv()
  %61 = getelementptr inbounds %class.anon.253, ptr %this1, i32 0, i32 1
  %62 = load ptr, ptr %61, align 8
  %63 = load i64, ptr %62, align 8
  %call25 = call noundef nonnull align 8 dereferenceable(8) ptr @_ZNSolsEl(ptr noundef nonnull align 8 dereferenceable(8) %call24, i64 noundef %63)
  %call26 = call noundef nonnull align 8 dereferenceable(8) ptr @_ZStlsISt11char_traitsIcEERSt13basic_ostreamIcT_ES5_PKc(ptr noundef nonnull align 8 dereferenceable(8) %call25, ptr noundef @.str.20)
  %64 = getelementptr inbounds %class.anon.253, ptr %this1, i32 0, i32 3
  %65 = load ptr, ptr %64, align 8
  %66 = load i32, ptr %65, align 4
  %call27 = call noundef i64 @_ZNK5arith3sls5valueEj(ptr noundef nonnull align 8 dereferenceable(97) %1, i32 noundef %66)
  %call28 = call noundef nonnull align 8 dereferenceable(8) ptr @_ZNSolsEl(ptr noundef nonnull align 8 dereferenceable(8) %call26, i64 noundef %call27)
  %call29 = call noundef nonnull align 8 dereferenceable(8) ptr @_ZStlsISt11char_traitsIcEERSt13basic_ostreamIcT_ES5_PKc(ptr noundef nonnull align 8 dereferenceable(8) %call28, ptr noundef @.str.39)
  %67 = getelementptr inbounds %class.anon.253, ptr %this1, i32 0, i32 0
  %68 = load ptr, ptr %67, align 8
  %69 = load i64, ptr %68, align 8
  %call30 = call noundef nonnull align 8 dereferenceable(8) ptr @_ZNSolsEl(ptr noundef nonnull align 8 dereferenceable(8) %call29, i64 noundef %69)
  %call31 = call noundef nonnull align 8 dereferenceable(8) ptr @_ZStlsISt11char_traitsIcEERSt13basic_ostreamIcT_ES5_PKc(ptr noundef nonnull align 8 dereferenceable(8) %call30, ptr noundef @.str.40)
  %70 = getelementptr inbounds %class.anon.253, ptr %this1, i32 0, i32 6
  %71 = load ptr, ptr %70, align 8
  %72 = load i64, ptr %71, align 8
  %73 = getelementptr inbounds %class.anon.253, ptr %this1, i32 0, i32 4
  %74 = load ptr, ptr %73, align 8
  %75 = load i64, ptr %74, align 8
  %76 = getelementptr inbounds %class.anon.253, ptr %this1, i32 0, i32 1
  %77 = load ptr, ptr %76, align 8
  %78 = load i64, ptr %77, align 8
  %79 = getelementptr inbounds %class.anon.253, ptr %this1, i32 0, i32 3
  %80 = load ptr, ptr %79, align 8
  %81 = load i32, ptr %80, align 4
  %call32 = call noundef i64 @_ZNK5arith3sls5valueEj(ptr noundef nonnull align 8 dereferenceable(97) %1, i32 noundef %81)
  %sub33 = sub nsw i64 %78, %call32
  %mul34 = mul nsw i64 %75, %sub33
  %add35 = add nsw i64 %72, %mul34
  %call36 = call noundef nonnull align 8 dereferenceable(8) ptr @_ZNSolsEl(ptr noundef nonnull align 8 dereferenceable(8) %call31, i64 noundef %add35)
  %call37 = call noundef nonnull align 8 dereferenceable(8) ptr @_ZStlsISt11char_traitsIcEERSt13basic_ostreamIcT_ES5_PKc(ptr noundef nonnull align 8 dereferenceable(8) %call36, ptr noundef @.str.41)
  %82 = getelementptr inbounds %class.anon.253, ptr %this1, i32 0, i32 7
  %83 = load ptr, ptr %82, align 8
  %84 = load i64, ptr %83, align 8
  %call38 = call noundef nonnull align 8 dereferenceable(8) ptr @_ZNSolsEl(ptr noundef nonnull align 8 dereferenceable(8) %call37, i64 noundef %84)
  %call39 = call noundef nonnull align 8 dereferenceable(8) ptr @_ZStlsISt11char_traitsIcEERSt13basic_ostreamIcT_ES5_PKc(ptr noundef nonnull align 8 dereferenceable(8) %call38, ptr noundef @.str)
  call void @_Z26notify_assertion_violationPKciS0_(ptr noundef @.str.9, i32 noundef 239, ptr noundef @.str.11)
  call void @exit(i32 noundef 114) #15
  unreachable

if.end40:                                         ; preds = %land.lhs.true, %if.end
  %85 = getelementptr inbounds %class.anon.253, ptr %this1, i32 0, i32 5
  %86 = load ptr, ptr %85, align 8
  %87 = load i8, ptr %86, align 1
  %tobool41 = trunc i8 %87 to i1
  ret i1 %tobool41
}