; Function Attrs: mustprogress uwtable
define internal fastcc noundef zeroext i1 @"_ZZN5arith3sls2cmEbRKNS0_4ineqEjlRlENK3$_1clEv"(ptr nocapture noundef nonnull readonly align 8 dereferenceable(72) %this) unnamed_addr #5 align 2 {
entry:
  %0 = getelementptr inbounds i8, ptr %this, i64 16
  %1 = load ptr, ptr %0, align 8
  %2 = load ptr, ptr %this, align 8
  %3 = load i64, ptr %2, align 8
  %cmp = icmp slt i64 %3, 0
  %4 = getelementptr inbounds i8, ptr %this, i64 24
  %5 = load ptr, ptr %4, align 8
  %6 = load i32, ptr %5, align 4
  %m_vars.i = getelementptr inbounds i8, ptr %1, i64 80
  %7 = load ptr, ptr %m_vars.i, align 8
  %idxprom.i.i = zext i32 %6 to i64
  %arrayidx.i.i = getelementptr inbounds %"struct.arith::sls::var_info", ptr %7, i64 %idxprom.i.i
  %8 = load i64, ptr %arrayidx.i.i, align 8
  %9 = getelementptr inbounds i8, ptr %this, i64 32
  %10 = load ptr, ptr %9, align 8
  %11 = load i64, ptr %10, align 8
  %12 = tail call noundef i64 @llvm.abs.i64(i64 %11, i1 true)
  %13 = getelementptr inbounds i8, ptr %this, i64 8
  %14 = load ptr, ptr %13, align 8
  br i1 %cmp, label %if.then, label %if.else

if.then:                                          ; preds = %entry
  %15 = xor i64 %3, -1
  %sub = add nuw i64 %12, %15
  %div = sdiv i64 %sub, %11
  %add4 = add nsw i64 %div, %8
  br label %if.end

if.else:                                          ; preds = %entry
  %add7 = add nsw i64 %3, -1
  %sub8 = add i64 %add7, %12
  %div9 = sdiv i64 %sub8, %11
  %sub10 = sub nsw i64 %8, %div9
  br label %if.end

if.end:                                           ; preds = %if.else, %if.then
  %sub10.sink = phi i64 [ %sub10, %if.else ], [ %add4, %if.then ]
  store i64 %sub10.sink, ptr %14, align 8
  %16 = getelementptr inbounds i8, ptr %this, i64 48
  %17 = load ptr, ptr %16, align 8
  %18 = load i64, ptr %17, align 8
  %19 = getelementptr inbounds i8, ptr %this, i64 32
  %20 = load ptr, ptr %19, align 8
  %21 = load i64, ptr %20, align 8
  %22 = getelementptr inbounds i8, ptr %this, i64 8
  %23 = load ptr, ptr %22, align 8
  %24 = load i64, ptr %23, align 8
  %25 = getelementptr inbounds i8, ptr %this, i64 24
  %26 = load ptr, ptr %25, align 8
  %27 = load i32, ptr %26, align 4
  %m_vars.i4 = getelementptr inbounds i8, ptr %1, i64 80
  %28 = load ptr, ptr %m_vars.i4, align 8
  %idxprom.i.i5 = zext i32 %27 to i64
  %arrayidx.i.i6 = getelementptr inbounds %"struct.arith::sls::var_info", ptr %28, i64 %idxprom.i.i5
  %29 = load i64, ptr %arrayidx.i.i6, align 8
  %sub12 = sub nsw i64 %24, %29
  %mul = mul nsw i64 %sub12, %21
  %add13 = add nsw i64 %mul, %18
  %30 = getelementptr inbounds i8, ptr %this, i64 56
  %31 = load ptr, ptr %30, align 8
  %32 = load i64, ptr %31, align 8
  %cmp14 = icmp eq i64 %add13, %32
  %33 = getelementptr inbounds i8, ptr %this, i64 40
  %34 = load ptr, ptr %33, align 8
  %frombool = zext i1 %cmp14 to i8
  store i8 %frombool, ptr %34, align 1
  %35 = load ptr, ptr %33, align 8
  %36 = load i8, ptr %35, align 1
  %37 = and i8 %36, 1
  %tobool.not = icmp eq i8 %37, 0
  br i1 %tobool.not, label %land.lhs.true, label %if.end40

land.lhs.true:                                    ; preds = %if.end
  %38 = load ptr, ptr %19, align 8
  %39 = load i64, ptr %38, align 8
  %40 = tail call noundef i64 @llvm.abs.i64(i64 %39, i1 true)
  %cmp16 = icmp eq i64 %40, 1
  br i1 %cmp16, label %if.then17, label %if.end40

if.then17:                                        ; preds = %land.lhs.true
  %call18 = tail call noundef nonnull align 8 dereferenceable(8) ptr @_Z14verbose_streamv()
  %call19 = tail call noundef nonnull align 8 dereferenceable(8) ptr @_ZStlsISt11char_traitsIcEERSt13basic_ostreamIcT_ES5_PKc(ptr noundef nonnull align 8 dereferenceable(8) %call18, ptr noundef nonnull @.str.37)
  %41 = getelementptr inbounds i8, ptr %this, i64 64
  %42 = load ptr, ptr %41, align 8
  %call20 = tail call noundef nonnull align 8 dereferenceable(8) ptr @_ZN5arithlsERSoRKNS_3sls4ineqE(ptr noundef nonnull align 8 dereferenceable(8) %call19, ptr noundef nonnull align 8 dereferenceable(36) %42)
  %call21 = tail call noundef nonnull align 8 dereferenceable(8) ptr @_ZStlsISt11char_traitsIcEERSt13basic_ostreamIcT_ES5_PKc(ptr noundef nonnull align 8 dereferenceable(8) %call20, ptr noundef nonnull @.str.38)
  %43 = load ptr, ptr %25, align 8
  %44 = load i32, ptr %43, align 4
  %call22 = tail call noundef nonnull align 8 dereferenceable(8) ptr @_ZNSolsEj(ptr noundef nonnull align 8 dereferenceable(8) %call21, i32 noundef %44)
  %call23 = tail call noundef nonnull align 8 dereferenceable(8) ptr @_ZStlsISt11char_traitsIcEERSt13basic_ostreamIcT_ES5_PKc(ptr noundef nonnull align 8 dereferenceable(8) %call22, ptr noundef nonnull @.str)
  %call24 = tail call noundef nonnull align 8 dereferenceable(8) ptr @_Z14verbose_streamv()
  %45 = load ptr, ptr %22, align 8
  %46 = load i64, ptr %45, align 8
  %call25 = tail call noundef nonnull align 8 dereferenceable(8) ptr @_ZNSolsEl(ptr noundef nonnull align 8 dereferenceable(8) %call24, i64 noundef %46)
  %call26 = tail call noundef nonnull align 8 dereferenceable(8) ptr @_ZStlsISt11char_traitsIcEERSt13basic_ostreamIcT_ES5_PKc(ptr noundef nonnull align 8 dereferenceable(8) %call25, ptr noundef nonnull @.str.20)
  %47 = load ptr, ptr %25, align 8
  %48 = load i32, ptr %47, align 4
  %49 = load ptr, ptr %m_vars.i4, align 8
  %idxprom.i.i8 = zext i32 %48 to i64
  %arrayidx.i.i9 = getelementptr inbounds %"struct.arith::sls::var_info", ptr %49, i64 %idxprom.i.i8
  %50 = load i64, ptr %arrayidx.i.i9, align 8
  %call28 = tail call noundef nonnull align 8 dereferenceable(8) ptr @_ZNSolsEl(ptr noundef nonnull align 8 dereferenceable(8) %call26, i64 noundef %50)
  %call29 = tail call noundef nonnull align 8 dereferenceable(8) ptr @_ZStlsISt11char_traitsIcEERSt13basic_ostreamIcT_ES5_PKc(ptr noundef nonnull align 8 dereferenceable(8) %call28, ptr noundef nonnull @.str.39)
  %51 = load ptr, ptr %this, align 8
  %52 = load i64, ptr %51, align 8
  %call30 = tail call noundef nonnull align 8 dereferenceable(8) ptr @_ZNSolsEl(ptr noundef nonnull align 8 dereferenceable(8) %call29, i64 noundef %52)
  %call31 = tail call noundef nonnull align 8 dereferenceable(8) ptr @_ZStlsISt11char_traitsIcEERSt13basic_ostreamIcT_ES5_PKc(ptr noundef nonnull align 8 dereferenceable(8) %call30, ptr noundef nonnull @.str.40)
  %53 = load ptr, ptr %16, align 8
  %54 = load i64, ptr %53, align 8
  %55 = load ptr, ptr %19, align 8
  %56 = load i64, ptr %55, align 8
  %57 = load ptr, ptr %22, align 8
  %58 = load i64, ptr %57, align 8
  %59 = load ptr, ptr %25, align 8
  %60 = load i32, ptr %59, align 4
  %61 = load ptr, ptr %m_vars.i4, align 8
  %idxprom.i.i11 = zext i32 %60 to i64
  %arrayidx.i.i12 = getelementptr inbounds %"struct.arith::sls::var_info", ptr %61, i64 %idxprom.i.i11
  %62 = load i64, ptr %arrayidx.i.i12, align 8
  %sub33 = sub nsw i64 %58, %62
  %mul34 = mul nsw i64 %sub33, %56
  %add35 = add nsw i64 %mul34, %54
  %call36 = tail call noundef nonnull align 8 dereferenceable(8) ptr @_ZNSolsEl(ptr noundef nonnull align 8 dereferenceable(8) %call31, i64 noundef %add35)
  %call37 = tail call noundef nonnull align 8 dereferenceable(8) ptr @_ZStlsISt11char_traitsIcEERSt13basic_ostreamIcT_ES5_PKc(ptr noundef nonnull align 8 dereferenceable(8) %call36, ptr noundef nonnull @.str.41)
  %63 = load ptr, ptr %30, align 8
  %64 = load i64, ptr %63, align 8
  %call38 = tail call noundef nonnull align 8 dereferenceable(8) ptr @_ZNSolsEl(ptr noundef nonnull align 8 dereferenceable(8) %call37, i64 noundef %64)
  %call39 = tail call noundef nonnull align 8 dereferenceable(8) ptr @_ZStlsISt11char_traitsIcEERSt13basic_ostreamIcT_ES5_PKc(ptr noundef nonnull align 8 dereferenceable(8) %call38, ptr noundef nonnull @.str)
  tail call void @_Z26notify_assertion_violationPKciS0_(ptr noundef nonnull @.str.9, i32 noundef 239, ptr noundef nonnull @.str.11)
  tail call void @exit(i32 noundef 114) #18
  unreachable

if.end40:                                         ; preds = %land.lhs.true, %if.end
  %tobool41 = icmp ne i8 %37, 0
  ret i1 %tobool41
}